; Function Attrs: nounwind uwtable
define ptr @duckdb_je_arena_choose_huge(ptr noundef %0) local_unnamed_addr #0 {
  %2 = load i32, ptr @huge_arena_ind, align 4, !tbaa !3
  %3 = zext i32 %2 to i64
  %4 = getelementptr inbounds nuw [0 x %struct.atomic_p_t], ptr @duckdb_je_arenas, i64 0, i64 %3
  %5 = load atomic i64, ptr %4 acquire, align 8
  %.0.i.i = inttoptr i64 %5 to ptr
  %6 = icmp eq i64 %5, 0
  br i1 %6, label %arena_get.exit.thread, label %arena_create_huge_arena.exit, !prof !166

arena_get.exit.thread:                            ; preds = %1
  %7 = load i32, ptr @huge_arena_ind, align 4, !tbaa !3
  %8 = zext i32 %7 to i64
  %9 = getelementptr inbounds nuw [0 x %struct.atomic_p_t], ptr @duckdb_je_arenas, i64 0, i64 %8
  %10 = load atomic i64, ptr %9 acquire, align 8
  %.0.i.i.i = inttoptr i64 %10 to ptr
  %11 = icmp eq i64 %10, 0
  br i1 %11, label %12, label %arena_get.exit.i, !prof !144

12:                                               ; preds = %arena_get.exit.thread
  %13 = tail call ptr @duckdb_je_arena_init(ptr noundef %0, i32 noundef %7, ptr noundef nonnull @duckdb_je_arena_config_default) #18
  br label %arena_get.exit.i

arena_get.exit.i:                                 ; preds = %12, %arena_get.exit.thread
  %.0.i.i5 = phi ptr [ %13, %12 ], [ %.0.i.i.i, %arena_get.exit.thread ]
  %14 = icmp eq ptr %.0.i.i5, null
  br i1 %14, label %arena_create_huge_arena.exit, label %15

15:                                               ; preds = %arena_get.exit.i
  %16 = getelementptr inbounds nuw i8, ptr %.0.i.i5, i64 78976
  tail call void @llvm.memcpy.p0.p0.i64(ptr noundef nonnull align 1 dereferenceable(32) %16, ptr noundef nonnull align 1 dereferenceable(32) @str, i64 noundef 31, i1 false) #18
  %17 = getelementptr inbounds nuw i8, ptr %.0.i.i5, i64 79007
  store i8 0, ptr %17, align 1, !tbaa !143
  %18 = load atomic i8, ptr @duckdb_je_background_thread_enabled_state monotonic, align 1
  %19 = trunc i8 %18 to i1
  br i1 %19, label %28, label %20

20:                                               ; preds = %15
  %21 = load atomic i64, ptr @dirty_decay_ms_default.0 monotonic, align 8
  %22 = icmp sgt i64 %21, 0
  br i1 %22, label %23, label %28

23:                                               ; preds = %20
  %24 = load atomic i8, ptr @duckdb_je_background_thread_enabled_state monotonic, align 1
  %25 = trunc i8 %24 to i1
  %..i.i.i = select i1 %25, i32 1, i32 2
  %26 = getelementptr inbounds nuw i8, ptr %.0.i.i5, i64 10664
  %27 = tail call zeroext i1 @duckdb_je_pa_decay_ms_set(ptr noundef %0, ptr noundef nonnull %26, i32 noundef 1, i64 noundef 0, i32 noundef %..i.i.i) #18
  br label %28

28:                                               ; preds = %23, %20, %15
  %29 = load atomic i8, ptr @duckdb_je_background_thread_enabled_state monotonic, align 1
  %30 = trunc i8 %29 to i1
  br i1 %30, label %arena_create_huge_arena.exit, label %31

31:                                               ; preds = %28
  %32 = load atomic i64, ptr @muzzy_decay_ms_default.0 monotonic, align 8
  %33 = icmp sgt i64 %32, 0
  br i1 %33, label %34, label %arena_create_huge_arena.exit

34:                                               ; preds = %31
  %35 = load atomic i8, ptr @duckdb_je_background_thread_enabled_state monotonic, align 1
  %36 = trunc i8 %35 to i1
  %..i.i12.i = select i1 %36, i32 1, i32 2
  %37 = getelementptr inbounds nuw i8, ptr %.0.i.i5, i64 10664
  %38 = tail call zeroext i1 @duckdb_je_pa_decay_ms_set(ptr noundef %0, ptr noundef nonnull %37, i32 noundef 2, i64 noundef 0, i32 noundef %..i.i12.i) #18
  br label %arena_create_huge_arena.exit

arena_create_huge_arena.exit:                     ; preds = %1, %34, %31, %28, %arena_get.exit.i
  %.0 = phi ptr [ null, %arena_get.exit.i ], [ %.0.i.i5, %28 ], [ %.0.i.i5, %31 ], [ %.0.i.i5, %34 ], [ %.0.i.i, %1 ]
  ret ptr %.0
}